target datalayout = "e-m:e-p270:32:32-p271:32:32-p272:64:64-i64:64-i128:128-f80:128-n8:16:32:64-S128"
target triple = "x86_64-pc-linux-gnu"

%struct.bitmap = type { ptr, i64 }

; Function Attrs: nounwind uwtable
define dso_local void @bitmap_and_not(ptr noundef %0, ptr noundef %1) #0 {
  %3 = alloca ptr, align 8
  %4 = alloca ptr, align 8
  %5 = alloca i64, align 8
  %6 = alloca i64, align 8
  store ptr %0, ptr %3, align 8, !tbaa !8
  store ptr %1, ptr %4, align 8, !tbaa !8
  call void @llvm.lifetime.start.p0(i64 8, ptr %5) #8
  %7 = load ptr, ptr %3, align 8, !tbaa !8
  %8 = getelementptr inbounds nuw %struct.bitmap, ptr %7, i32 0, i32 1
  %9 = load i64, ptr %8, align 8, !tbaa !14
  %10 = load ptr, ptr %4, align 8, !tbaa !8
  %11 = getelementptr inbounds nuw %struct.bitmap, ptr %10, i32 0, i32 1
  %12 = load i64, ptr %11, align 8, !tbaa !14
  %13 = icmp ult i64 %9, %12
  br i1 %13, label %14, label %18

14:                                               ; preds = %2
  %15 = load ptr, ptr %3, align 8, !tbaa !8
  %16 = getelementptr inbounds nuw %struct.bitmap, ptr %15, i32 0, i32 1
  %17 = load i64, ptr %16, align 8, !tbaa !14
  br label %22

18:                                               ; preds = %2
  %19 = load ptr, ptr %4, align 8, !tbaa !8
  %20 = getelementptr inbounds nuw %struct.bitmap, ptr %19, i32 0, i32 1
  %21 = load i64, ptr %20, align 8, !tbaa !14
  br label %22

22:                                               ; preds = %18, %14
  %23 = phi i64 [ %17, %14 ], [ %21, %18 ]
  store i64 %23, ptr %5, align 8, !tbaa !4
  call void @llvm.lifetime.start.p0(i64 8, ptr %6) #8
  store i64 0, ptr %6, align 8, !tbaa !4
  br label %24

24:                                               ; preds = %43, %22
  %25 = load i64, ptr %6, align 8, !tbaa !4
  %26 = load i64, ptr %5, align 8, !tbaa !4
  %27 = icmp ult i64 %25, %26
  br i1 %27, label %28, label %46

28:                                               ; preds = %24
  %29 = load ptr, ptr %4, align 8, !tbaa !8
  %30 = getelementptr inbounds nuw %struct.bitmap, ptr %29, i32 0, i32 0
  %31 = load ptr, ptr %30, align 8, !tbaa !11
  %32 = load i64, ptr %6, align 8, !tbaa !4
  %33 = getelementptr inbounds nuw i64, ptr %31, i64 %32
  %34 = load i64, ptr %33, align 8, !tbaa !4
  %35 = xor i64 %34, -1
  %36 = load ptr, ptr %3, align 8, !tbaa !8
  %37 = getelementptr inbounds nuw %struct.bitmap, ptr %36, i32 0, i32 0
  %38 = load ptr, ptr %37, align 8, !tbaa !11
  %39 = load i64, ptr %6, align 8, !tbaa !4
  %40 = getelementptr inbounds nuw i64, ptr %38, i64 %39
  %41 = load i64, ptr %40, align 8, !tbaa !4
  %42 = and i64 %41, %35
  store i64 %42, ptr %40, align 8, !tbaa !4
  br label %43

43:                                               ; preds = %28
  %44 = load i64, ptr %6, align 8, !tbaa !4
  %45 = add i64 %44, 1
  store i64 %45, ptr %6, align 8, !tbaa !4
  br label %24, !llvm.loop !21

46:                                               ; preds = %24
  call void @llvm.lifetime.end.p0(i64 8, ptr %6) #8
  call void @llvm.lifetime.end.p0(i64 8, ptr %5) #8
  ret void
}