; Function Attrs: nofree norecurse nosync nounwind memory(readwrite, inaccessiblemem: none) uwtable
define dso_local void @bitmap_and_not(ptr noundef readonly captures(none) %0, ptr noundef readonly captures(none) %1) local_unnamed_addr #5 {
  %3 = getelementptr inbounds nuw i8, ptr %0, i64 8
  %4 = load i64, ptr %3, align 8, !tbaa !11
  %5 = getelementptr inbounds nuw i8, ptr %1, i64 8
  %6 = load i64, ptr %5, align 8, !tbaa !11
  %. = tail call i64 @llvm.umin.i64(i64 %4, i64 %6)
  %.not = icmp eq i64 %., 0
  br i1 %.not, label %._crit_edge, label %.lr.ph

.lr.ph:                                           ; preds = %2
  %7 = load ptr, ptr %1, align 8, !tbaa !4
  %8 = load ptr, ptr %0, align 8, !tbaa !4
  br label %9

9:                                                ; preds = %.lr.ph, %9
  %.012 = phi i64 [ 0, %.lr.ph ], [ %16, %9 ]
  %10 = getelementptr inbounds nuw i64, ptr %7, i64 %.012
  %11 = load i64, ptr %10, align 8, !tbaa !12
  %12 = xor i64 %11, -1
  %13 = getelementptr inbounds nuw i64, ptr %8, i64 %.012
  %14 = load i64, ptr %13, align 8, !tbaa !12
  %15 = and i64 %14, %12
  store i64 %15, ptr %13, align 8, !tbaa !12
  %16 = add nuw i64 %.012, 1
  %exitcond.not = icmp eq i64 %16, %.
  br i1 %exitcond.not, label %._crit_edge, label %9, !llvm.loop !16

._crit_edge:                                      ; preds = %9, %2
  ret void
}